target datalayout = "e-m:e-p270:32:32-p271:32:32-p272:64:64-i64:64-i128:128-f80:128-n8:16:32:64-S128"
target triple = "x86_64-pc-linux-gnu"

%struct.x509_st = type { %struct.x509_cinf_st, %struct.X509_algor_st, %struct.asn1_string_st, %struct.x509_sig_info_st, %struct.CRYPTO_REF_COUNT, %struct.crypto_ex_data_st, i64, i64, i32, i32, i32, i32, ptr, ptr, ptr, ptr, ptr, ptr, ptr, ptr, [20 x i8], ptr, ptr, i32, ptr, ptr, ptr }
%struct.x509_cinf_st = type { ptr, %struct.asn1_string_st, %struct.X509_algor_st, ptr, %struct.X509_val_st, ptr, ptr, ptr, ptr, ptr, %struct.ASN1_ENCODING_st }
%struct.X509_val_st = type { ptr, ptr }
%struct.ASN1_ENCODING_st = type { ptr, i64, i32 }
%struct.X509_algor_st = type { ptr, ptr }
%struct.asn1_string_st = type { i32, i32, ptr, i64 }
%struct.x509_sig_info_st = type { i32, i32, i32, i32 }
%struct.CRYPTO_REF_COUNT = type { i32 }
%struct.crypto_ex_data_st = type { ptr, ptr }
%struct.x509_cert_aux_st = type { ptr, ptr, ptr, ptr, ptr }

@X509_CERT_AUX_it.local_it = internal constant { i8, [7 x i8], i64, ptr, i64, ptr, i64, ptr } { i8 1, [7 x i8] zeroinitializer, i64 16, ptr @X509_CERT_AUX_seq_tt, i64 5, ptr null, i64 40, ptr @.str }, align 8

; Function Attrs: nounwind uwtable
define ptr @X509_CERT_AUX_it() #0 {
  ret ptr @X509_CERT_AUX_it.local_it
}

; Function Attrs: nounwind uwtable
define ptr @X509_CERT_AUX_new() #0 {
  %1 = call ptr @X509_CERT_AUX_it()
  %2 = call ptr @ASN1_item_new(ptr noundef %1)
  ret ptr %2
}

; Function Attrs: nounwind uwtable
define internal ptr @aux_get(ptr noundef %0) #0 {
  %2 = alloca ptr, align 8
  %3 = alloca ptr, align 8
  store ptr %0, ptr %3, align 8, !tbaa !14
  %4 = load ptr, ptr %3, align 8, !tbaa !14
  %5 = icmp eq ptr %4, null
  br i1 %5, label %6, label %7

6:                                                ; preds = %1
  store ptr null, ptr %2, align 8
  br label %22

7:                                                ; preds = %1
  %8 = load ptr, ptr %3, align 8, !tbaa !14
  %9 = getelementptr inbounds nuw %struct.x509_st, ptr %8, i32 0, i32 21
  %10 = load ptr, ptr %9, align 8, !tbaa !16
  %11 = icmp eq ptr %10, null
  br i1 %11, label %12, label %18

12:                                               ; preds = %7
  %13 = call ptr @X509_CERT_AUX_new()
  %14 = load ptr, ptr %3, align 8, !tbaa !14
  %15 = getelementptr inbounds nuw %struct.x509_st, ptr %14, i32 0, i32 21
  store ptr %13, ptr %15, align 8, !tbaa !16
  %16 = icmp eq ptr %13, null
  br i1 %16, label %17, label %18

17:                                               ; preds = %12
  store ptr null, ptr %2, align 8
  br label %22

18:                                               ; preds = %12, %7
  %19 = load ptr, ptr %3, align 8, !tbaa !14
  %20 = getelementptr inbounds nuw %struct.x509_st, ptr %19, i32 0, i32 21
  %21 = load ptr, ptr %20, align 8, !tbaa !16
  store ptr %21, ptr %2, align 8
  br label %22

22:                                               ; preds = %18, %17, %6
  %23 = load ptr, ptr %2, align 8
  ret ptr %23
}

; Function Attrs: nounwind uwtable
define i32 @X509_alias_set1(ptr noundef %0, ptr noundef %1, i32 noundef %2) #0 {
  %4 = alloca i32, align 4
  %5 = alloca ptr, align 8
  %6 = alloca ptr, align 8
  %7 = alloca i32, align 4
  %8 = alloca ptr, align 8
  %9 = alloca i32, align 4
  store ptr %0, ptr %5, align 8, !tbaa !14
  store ptr %1, ptr %6, align 8, !tbaa !43
  store i32 %2, ptr %7, align 4, !tbaa !44
  call void @llvm.lifetime.start.p0(i64 8, ptr %8) #4
  %10 = load ptr, ptr %6, align 8, !tbaa !43
  %11 = icmp ne ptr %10, null
  br i1 %11, label %38, label %12

12:                                               ; preds = %3
  %13 = load ptr, ptr %5, align 8, !tbaa !14
  %14 = icmp ne ptr %13, null
  br i1 %14, label %15, label %27

15:                                               ; preds = %12
  %16 = load ptr, ptr %5, align 8, !tbaa !14
  %17 = getelementptr inbounds nuw %struct.x509_st, ptr %16, i32 0, i32 21
  %18 = load ptr, ptr %17, align 8, !tbaa !16
  %19 = icmp ne ptr %18, null
  br i1 %19, label %20, label %27

20:                                               ; preds = %15
  %21 = load ptr, ptr %5, align 8, !tbaa !14
  %22 = getelementptr inbounds nuw %struct.x509_st, ptr %21, i32 0, i32 21
  %23 = load ptr, ptr %22, align 8, !tbaa !16
  %24 = getelementptr inbounds nuw %struct.x509_cert_aux_st, ptr %23, i32 0, i32 2
  %25 = load ptr, ptr %24, align 8, !tbaa !45
  %26 = icmp ne ptr %25, null
  br i1 %26, label %28, label %27

27:                                               ; preds = %20, %15, %12
  store i32 1, ptr %4, align 4
  store i32 1, ptr %9, align 4
  br label %61

28:                                               ; preds = %20
  %29 = load ptr, ptr %5, align 8, !tbaa !14
  %30 = getelementptr inbounds nuw %struct.x509_st, ptr %29, i32 0, i32 21
  %31 = load ptr, ptr %30, align 8, !tbaa !16
  %32 = getelementptr inbounds nuw %struct.x509_cert_aux_st, ptr %31, i32 0, i32 2
  %33 = load ptr, ptr %32, align 8, !tbaa !45
  call void @ASN1_UTF8STRING_free(ptr noundef %33)
  %34 = load ptr, ptr %5, align 8, !tbaa !14
  %35 = getelementptr inbounds nuw %struct.x509_st, ptr %34, i32 0, i32 21
  %36 = load ptr, ptr %35, align 8, !tbaa !16
  %37 = getelementptr inbounds nuw %struct.x509_cert_aux_st, ptr %36, i32 0, i32 2
  store ptr null, ptr %37, align 8, !tbaa !45
  store i32 1, ptr %4, align 4
  store i32 1, ptr %9, align 4
  br label %61

38:                                               ; preds = %3
  %39 = load ptr, ptr %5, align 8, !tbaa !14
  %40 = call ptr @aux_get(ptr noundef %39)
  store ptr %40, ptr %8, align 8, !tbaa !12
  %41 = icmp eq ptr %40, null
  br i1 %41, label %42, label %43

42:                                               ; preds = %38
  store i32 0, ptr %4, align 4
  store i32 1, ptr %9, align 4
  br label %61

43:                                               ; preds = %38
  %44 = load ptr, ptr %8, align 8, !tbaa !12
  %45 = getelementptr inbounds nuw %struct.x509_cert_aux_st, ptr %44, i32 0, i32 2
  %46 = load ptr, ptr %45, align 8, !tbaa !45
  %47 = icmp eq ptr %46, null
  br i1 %47, label %48, label %54

48:                                               ; preds = %43
  %49 = call ptr @ASN1_UTF8STRING_new()
  %50 = load ptr, ptr %8, align 8, !tbaa !12
  %51 = getelementptr inbounds nuw %struct.x509_cert_aux_st, ptr %50, i32 0, i32 2
  store ptr %49, ptr %51, align 8, !tbaa !45
  %52 = icmp eq ptr %49, null
  br i1 %52, label %53, label %54

53:                                               ; preds = %48
  store i32 0, ptr %4, align 4
  store i32 1, ptr %9, align 4
  br label %61

54:                                               ; preds = %48, %43
  %55 = load ptr, ptr %8, align 8, !tbaa !12
  %56 = getelementptr inbounds nuw %struct.x509_cert_aux_st, ptr %55, i32 0, i32 2
  %57 = load ptr, ptr %56, align 8, !tbaa !45
  %58 = load ptr, ptr %6, align 8, !tbaa !43
  %59 = load i32, ptr %7, align 4, !tbaa !44
  %60 = call i32 @ASN1_STRING_set(ptr noundef %57, ptr noundef %58, i32 noundef %59)
  store i32 %60, ptr %4, align 4
  store i32 1, ptr %9, align 4
  br label %61

61:                                               ; preds = %54, %53, %42, %28, %27
  call void @llvm.lifetime.end.p0(i64 8, ptr %8) #4
  %62 = load i32, ptr %4, align 4
  ret i32 %62
}