; Function Attrs: nounwind uwtable
define i32 @X509_alias_set1(ptr noundef captures(address_is_null) %0, ptr noundef %1, i32 noundef %2) local_unnamed_addr #1 {
  %.not = icmp eq ptr %1, null
  %.not17 = icmp eq ptr %0, null
  br i1 %.not, label %4, label %14

4:                                                ; preds = %3
  br i1 %.not17, label %aux_get.exit.thread, label %5

5:                                                ; preds = %4
  %6 = getelementptr inbounds nuw i8, ptr %0, i64 336
  %7 = load ptr, ptr %6, align 8, !tbaa !3
  %.not18 = icmp eq ptr %7, null
  br i1 %.not18, label %aux_get.exit.thread, label %8

8:                                                ; preds = %5
  %9 = getelementptr inbounds nuw i8, ptr %7, i64 16
  %10 = load ptr, ptr %9, align 8, !tbaa !35
  %.not19 = icmp eq ptr %10, null
  br i1 %.not19, label %aux_get.exit.thread, label %11

11:                                               ; preds = %8
  tail call void @ASN1_UTF8STRING_free(ptr noundef nonnull %10) #6
  %12 = load ptr, ptr %6, align 8, !tbaa !3
  %13 = getelementptr inbounds nuw i8, ptr %12, i64 16
  store ptr null, ptr %13, align 8, !tbaa !35
  br label %aux_get.exit.thread

14:                                               ; preds = %3
  br i1 %.not17, label %aux_get.exit.thread, label %15

15:                                               ; preds = %14
  %16 = getelementptr inbounds nuw i8, ptr %0, i64 336
  %17 = load ptr, ptr %16, align 8, !tbaa !3
  %18 = icmp eq ptr %17, null
  br i1 %18, label %aux_get.exit, label %aux_get.exit.thread21

aux_get.exit:                                     ; preds = %15
  %19 = tail call ptr @ASN1_item_new(ptr noundef nonnull @X509_CERT_AUX_it.local_it) #6
  store ptr %19, ptr %16, align 8, !tbaa !3
  %20 = icmp eq ptr %19, null
  br i1 %20, label %aux_get.exit.thread, label %aux_get.exit.thread21

aux_get.exit.thread21:                            ; preds = %15, %aux_get.exit
  %.0.i23 = phi ptr [ %19, %aux_get.exit ], [ %17, %15 ]
  %21 = getelementptr inbounds nuw i8, ptr %.0.i23, i64 16
  %22 = load ptr, ptr %21, align 8, !tbaa !35
  %23 = icmp eq ptr %22, null
  br i1 %23, label %24, label %27

24:                                               ; preds = %aux_get.exit.thread21
  %25 = tail call ptr @ASN1_UTF8STRING_new() #6
  store ptr %25, ptr %21, align 8, !tbaa !35
  %26 = icmp eq ptr %25, null
  br i1 %26, label %aux_get.exit.thread, label %27

27:                                               ; preds = %24, %aux_get.exit.thread21
  %28 = phi ptr [ %25, %24 ], [ %22, %aux_get.exit.thread21 ]
  %29 = tail call i32 @ASN1_STRING_set(ptr noundef nonnull %28, ptr noundef nonnull %1, i32 noundef %2) #6
  br label %aux_get.exit.thread

aux_get.exit.thread:                              ; preds = %14, %24, %aux_get.exit, %4, %5, %8, %27, %11
  %.0 = phi i32 [ %29, %27 ], [ 1, %11 ], [ 1, %8 ], [ 1, %5 ], [ 1, %4 ], [ 0, %aux_get.exit ], [ 0, %24 ], [ 0, %14 ]
  ret i32 %.0
}